; Function Attrs: nounwind uwtable
define dso_local ptr @Py_DecodeLocale(ptr noundef %0, ptr noundef %1) local_unnamed_addr #0 {
  %3 = alloca ptr, align 8
  call void @llvm.lifetime.start.p0(i64 8, ptr nonnull %3) #17
  %4 = call i32 @_Py_DecodeLocaleEx(ptr noundef %0, ptr noundef nonnull %3, ptr noundef %1, ptr noundef null, i32 noundef 0, i32 noundef 2)
  %.not = icmp eq i32 %4, 0
  br i1 %.not, label %8, label %5

5:                                                ; preds = %2
  %.not8 = icmp eq ptr %1, null
  br i1 %.not8, label %10, label %6

6:                                                ; preds = %5
  %7 = sext i32 %4 to i64
  store i64 %7, ptr %1, align 8, !tbaa !183
  br label %10

8:                                                ; preds = %2
  %9 = load ptr, ptr %3, align 8, !tbaa !184
  br label %10

10:                                               ; preds = %5, %6, %8
  %.0 = phi ptr [ %9, %8 ], [ null, %6 ], [ null, %5 ]
  call void @llvm.lifetime.end.p0(i64 8, ptr nonnull %3) #17
  ret ptr %.0
}